target datalayout = "e-m:e-p270:32:32-p271:32:32-p272:64:64-i64:64-f80:128-n8:16:32:64-S128"
target triple = "x86_64-pc-linux-gnu"

@.str = private unnamed_addr constant [3 x i8] c"%d\00", align 1
@.str.1 = private unnamed_addr constant [5 x i8] c"%s%s\00", align 1
@.str.2 = private unnamed_addr constant [3 x i8] c"%c\00", align 1
@.str.3 = private unnamed_addr constant [2 x i8] c"\0A\00", align 1

; Function Attrs: noinline nounwind uwtable
define dso_local void @main() #0 {
  %1 = alloca i32, align 4
  %2 = alloca i32, align 4
  %3 = alloca i32, align 4
  %4 = alloca i32, align 4
  %5 = alloca i32, align 4
  %6 = alloca i32, align 4
  %7 = alloca i32, align 4
  %8 = alloca i32, align 4
  %9 = alloca i32, align 4
  %10 = alloca [200 x i32], align 16
  %11 = alloca i32, align 4
  %12 = alloca i32, align 4
  %13 = alloca [101 x i8], align 16
  %14 = alloca [101 x i8], align 16
  %15 = alloca [200 x i8], align 16
  store i32 0, i32* %9, align 4
  store i32 0, i32* %11, align 4
  %16 = call i32 (i8*, ...) @__isoc99_scanf(i8* getelementptr inbounds ([3 x i8], [3 x i8]* @.str, i64 0, i64 0), i32* %1)
  store i32 0, i32* %3, align 4
  br label %17

17:                                               ; preds = %179, %0
  %18 = load i32, i32* %3, align 4
  %19 = load i32, i32* %1, align 4
  %20 = icmp slt i32 %18, %19
  br i1 %20, label %21, label %182

21:                                               ; preds = %17
  %22 = getelementptr inbounds [101 x i8], [101 x i8]* %13, i64 0, i64 0
  %23 = getelementptr inbounds [101 x i8], [101 x i8]* %14, i64 0, i64 0
  %24 = call i32 (i8*, ...) @__isoc99_scanf(i8* getelementptr inbounds ([5 x i8], [5 x i8]* @.str.1, i64 0, i64 0), i8* %22, i8* %23)
  %25 = getelementptr inbounds [101 x i8], [101 x i8]* %13, i64 0, i64 0
  %26 = call i64 @strlen(i8* %25) #3
  %27 = trunc i64 %26 to i32
  store i32 %27, i32* %5, align 4
  %28 = getelementptr inbounds [101 x i8], [101 x i8]* %14, i64 0, i64 0
  %29 = call i64 @strlen(i8* %28) #3
  %30 = trunc i64 %29 to i32
  store i32 %30, i32* %6, align 4
  %31 = getelementptr inbounds [101 x i8], [101 x i8]* %13, i64 0, i64 101
  store i8 0, i8* %31, align 1
  %32 = load i32, i32* %5, align 4
  %33 = sub nsw i32 101, %32
  store i32 %33, i32* %12, align 4
  %34 = load i32, i32* %5, align 4
  %35 = sub nsw i32 %34, 1
  store i32 %35, i32* %2, align 4
  br label %36

36:                                               ; preds = %49, %21
  %37 = load i32, i32* %2, align 4
  %38 = icmp sge i32 %37, 0
  br i1 %38, label %39, label %52

39:                                               ; preds = %36
  %40 = load i32, i32* %2, align 4
  %41 = sext i32 %40 to i64
  %42 = getelementptr inbounds [101 x i8], [101 x i8]* %13, i64 0, i64 %41
  %43 = load i8, i8* %42, align 1
  %44 = load i32, i32* %2, align 4
  %45 = load i32, i32* %12, align 4
  %46 = add nsw i32 %44, %45
  %47 = sext i32 %46 to i64
  %48 = getelementptr inbounds [101 x i8], [101 x i8]* %13, i64 0, i64 %47
  store i8 %43, i8* %48, align 1
  br label %49

49:                                               ; preds = %39
  %50 = load i32, i32* %2, align 4
  %51 = add nsw i32 %50, -1
  store i32 %51, i32* %2, align 4
  br label %36

52:                                               ; preds = %36
  store i32 0, i32* %2, align 4
  br label %53

53:                                               ; preds = %61, %52
  %54 = load i32, i32* %2, align 4
  %55 = load i32, i32* %12, align 4
  %56 = icmp slt i32 %54, %55
  br i1 %56, label %57, label %64

57:                                               ; preds = %53
  %58 = load i32, i32* %2, align 4
  %59 = sext i32 %58 to i64
  %60 = getelementptr inbounds [101 x i8], [101 x i8]* %13, i64 0, i64 %59
  store i8 48, i8* %60, align 1
  br label %61

61:                                               ; preds = %57
  %62 = load i32, i32* %2, align 4
  %63 = add nsw i32 %62, 1
  store i32 %63, i32* %2, align 4
  br label %53

64:                                               ; preds = %53
  %65 = getelementptr inbounds [101 x i8], [101 x i8]* %14, i64 0, i64 101
  store i8 0, i8* %65, align 1
  %66 = load i32, i32* %6, align 4
  %67 = sub nsw i32 101, %66
  store i32 %67, i32* %12, align 4
  %68 = load i32, i32* %6, align 4
  %69 = sub nsw i32 %68, 1
  store i32 %69, i32* %2, align 4
  br label %70

70:                                               ; preds = %83, %64
  %71 = load i32, i32* %2, align 4
  %72 = icmp sge i32 %71, 0
  br i1 %72, label %73, label %86

73:                                               ; preds = %70
  %74 = load i32, i32* %2, align 4
  %75 = sext i32 %74 to i64
  %76 = getelementptr inbounds [101 x i8], [101 x i8]* %14, i64 0, i64 %75
  %77 = load i8, i8* %76, align 1
  %78 = load i32, i32* %2, align 4
  %79 = load i32, i32* %12, align 4
  %80 = add nsw i32 %78, %79
  %81 = sext i32 %80 to i64
  %82 = getelementptr inbounds [101 x i8], [101 x i8]* %14, i64 0, i64 %81
  store i8 %77, i8* %82, align 1
  br label %83

83:                                               ; preds = %73
  %84 = load i32, i32* %2, align 4
  %85 = add nsw i32 %84, -1
  store i32 %85, i32* %2, align 4
  br label %70

86:                                               ; preds = %70
  store i32 0, i32* %2, align 4
  br label %87

87:                                               ; preds = %95, %86
  %88 = load i32, i32* %2, align 4
  %89 = load i32, i32* %12, align 4
  %90 = icmp slt i32 %88, %89
  br i1 %90, label %91, label %98

91:                                               ; preds = %87
  %92 = load i32, i32* %2, align 4
  %93 = sext i32 %92 to i64
  %94 = getelementptr inbounds [101 x i8], [101 x i8]* %14, i64 0, i64 %93
  store i8 48, i8* %94, align 1
  br label %95

95:                                               ; preds = %91
  %96 = load i32, i32* %2, align 4
  %97 = add nsw i32 %96, 1
  store i32 %97, i32* %2, align 4
  br label %87

98:                                               ; preds = %87
  store i32 100, i32* %4, align 4
  br label %99

99:                                               ; preds = %158, %98
  %100 = load i32, i32* %4, align 4
  %101 = load i32, i32* %5, align 4
  %102 = sub nsw i32 100, %101
  %103 = icmp sge i32 %100, %102
  br i1 %103, label %104, label %161

104:                                              ; preds = %99
  %105 = load i32, i32* %4, align 4
  %106 = sext i32 %105 to i64
  %107 = getelementptr inbounds [101 x i8], [101 x i8]* %13, i64 0, i64 %106
  %108 = load i8, i8* %107, align 1
  %109 = sext i8 %108 to i32
  %110 = load i32, i32* %11, align 4
  %111 = load i32, i32* %4, align 4
  %112 = sext i32 %111 to i64
  %113 = getelementptr inbounds [101 x i8], [101 x i8]* %14, i64 0, i64 %112
  %114 = load i8, i8* %113, align 1
  %115 = sext i8 %114 to i32
  %116 = add nsw i32 %110, %115
  %117 = icmp sge i32 %109, %116
  br i1 %117, label %118, label %137

118:                                              ; preds = %104
  %119 = load i32, i32* %4, align 4
  %120 = sext i32 %119 to i64
  %121 = getelementptr inbounds [101 x i8], [101 x i8]* %13, i64 0, i64 %120
  %122 = load i8, i8* %121, align 1
  %123 = sext i8 %122 to i32
  %124 = load i32, i32* %4, align 4
  %125 = sext i32 %124 to i64
  %126 = getelementptr inbounds [101 x i8], [101 x i8]* %14, i64 0, i64 %125
  %127 = load i8, i8* %126, align 1
  %128 = sext i8 %127 to i32
  %129 = load i32, i32* %11, align 4
  %130 = add nsw i32 %128, %129
  %131 = sub nsw i32 %123, %130
  %132 = add nsw i32 %131, 48
  %133 = trunc i32 %132 to i8
  %134 = load i32, i32* %4, align 4
  %135 = sext i32 %134 to i64
  %136 = getelementptr inbounds [200 x i8], [200 x i8]* %15, i64 0, i64 %135
  store i8 %133, i8* %136, align 1
  store i32 0, i32* %11, align 4
  br label %157

137:                                              ; preds = %104
  %138 = load i32, i32* %4, align 4
  %139 = sext i32 %138 to i64
  %140 = getelementptr inbounds [101 x i8], [101 x i8]* %13, i64 0, i64 %139
  %141 = load i8, i8* %140, align 1
  %142 = sext i8 %141 to i32
  %143 = add nsw i32 %142, 10
  %144 = load i32, i32* %4, align 4
  %145 = sext i32 %144 to i64
  %146 = getelementptr inbounds [101 x i8], [101 x i8]* %14, i64 0, i64 %145
  %147 = load i8, i8* %146, align 1
  %148 = sext i8 %147 to i32
  %149 = load i32, i32* %11, align 4
  %150 = add nsw i32 %148, %149
  %151 = sub nsw i32 %143, %150
  %152 = add nsw i32 %151, 48
  %153 = trunc i32 %152 to i8
  %154 = load i32, i32* %4, align 4
  %155 = sext i32 %154 to i64
  %156 = getelementptr inbounds [200 x i8], [200 x i8]* %15, i64 0, i64 %155
  store i8 %153, i8* %156, align 1
  store i32 1, i32* %11, align 4
  br label %157

157:                                              ; preds = %137, %118
  br label %158

158:                                              ; preds = %157
  %159 = load i32, i32* %4, align 4
  %160 = add nsw i32 %159, -1
  store i32 %160, i32* %4, align 4
  br label %99

161:                                              ; preds = %99
  %162 = load i32, i32* %5, align 4
  %163 = sub nsw i32 101, %162
  store i32 %163, i32* %7, align 4
  br label %164

164:                                              ; preds = %174, %161
  %165 = load i32, i32* %7, align 4
  %166 = icmp sle i32 %165, 100
  br i1 %166, label %167, label %177

167:                                              ; preds = %164
  %168 = load i32, i32* %7, align 4
  %169 = sext i32 %168 to i64
  %170 = getelementptr inbounds [200 x i8], [200 x i8]* %15, i64 0, i64 %169
  %171 = load i8, i8* %170, align 1
  %172 = sext i8 %171 to i32
  %173 = call i32 (i8*, ...) @printf(i8* getelementptr inbounds ([3 x i8], [3 x i8]* @.str.2, i64 0, i64 0), i32 %172)
  br label %174

174:                                              ; preds = %167
  %175 = load i32, i32* %7, align 4
  %176 = add nsw i32 %175, 1
  store i32 %176, i32* %7, align 4
  br label %164

177:                                              ; preds = %164
  %178 = call i32 (i8*, ...) @printf(i8* getelementptr inbounds ([2 x i8], [2 x i8]* @.str.3, i64 0, i64 0))
  br label %179

179:                                              ; preds = %177
  %180 = load i32, i32* %3, align 4
  %181 = add nsw i32 %180, 1
  store i32 %181, i32* %3, align 4
  br label %17

182:                                              ; preds = %17
  ret void
}